target datalayout = "e-m:e-p270:32:32-p271:32:32-p272:64:64-i64:64-i128:128-f80:128-n8:16:32:64-S128"
target triple = "x86_64-pc-linux-gnu"

%struct.t_trxstatus = type { i32, i32, float, float, ptr, ptr, ptr, i32, ptr }
%struct.t_trxframe = type { i32, i8, i32, i8, i64, i8, float, i8, i8, float, i32, i8, ptr, i8, float, i8, ptr, i8, ptr, i8, ptr, i8, [3 x [3 x float]], i8, i32, i8, ptr }

; Function Attrs: mustprogress nounwind uwtable
define internal void @_ZL9copy_rvecPKfPf(ptr noundef %0, ptr noundef %1) #0 {
  %3 = alloca ptr, align 8
  %4 = alloca ptr, align 8
  store ptr %0, ptr %3, align 8
  store ptr %1, ptr %4, align 8
  %5 = load ptr, ptr %3, align 8
  %6 = getelementptr inbounds float, ptr %5, i64 0
  %7 = load float, ptr %6, align 4
  %8 = load ptr, ptr %4, align 8
  %9 = getelementptr inbounds float, ptr %8, i64 0
  store float %7, ptr %9, align 4
  %10 = load ptr, ptr %3, align 8
  %11 = getelementptr inbounds float, ptr %10, i64 1
  %12 = load float, ptr %11, align 4
  %13 = load ptr, ptr %4, align 8
  %14 = getelementptr inbounds float, ptr %13, i64 1
  store float %12, ptr %14, align 4
  %15 = load ptr, ptr %3, align 8
  %16 = getelementptr inbounds float, ptr %15, i64 2
  %17 = load float, ptr %16, align 4
  %18 = load ptr, ptr %4, align 8
  %19 = getelementptr inbounds float, ptr %18, i64 2
  store float %17, ptr %19, align 4
  ret void
}

; Function Attrs: mustprogress nounwind uwtable
define internal void @_ZL8copy_matPA3_KfPA3_f(ptr noundef %0, ptr noundef %1) #0 {
  %3 = alloca ptr, align 8
  %4 = alloca ptr, align 8
  store ptr %0, ptr %3, align 8
  store ptr %1, ptr %4, align 8
  %5 = load ptr, ptr %3, align 8
  %6 = getelementptr inbounds [3 x float], ptr %5, i64 0
  %7 = getelementptr inbounds [3 x float], ptr %6, i64 0, i64 0
  %8 = load ptr, ptr %4, align 8
  %9 = getelementptr inbounds [3 x float], ptr %8, i64 0
  %10 = getelementptr inbounds [3 x float], ptr %9, i64 0, i64 0
  call void @_ZL9copy_rvecPKfPf(ptr noundef %7, ptr noundef %10)
  %11 = load ptr, ptr %3, align 8
  %12 = getelementptr inbounds [3 x float], ptr %11, i64 1
  %13 = getelementptr inbounds [3 x float], ptr %12, i64 0, i64 0
  %14 = load ptr, ptr %4, align 8
  %15 = getelementptr inbounds [3 x float], ptr %14, i64 1
  %16 = getelementptr inbounds [3 x float], ptr %15, i64 0, i64 0
  call void @_ZL9copy_rvecPKfPf(ptr noundef %13, ptr noundef %16)
  %17 = load ptr, ptr %3, align 8
  %18 = getelementptr inbounds [3 x float], ptr %17, i64 2
  %19 = getelementptr inbounds [3 x float], ptr %18, i64 0, i64 0
  %20 = load ptr, ptr %4, align 8
  %21 = getelementptr inbounds [3 x float], ptr %20, i64 2
  %22 = getelementptr inbounds [3 x float], ptr %21, i64 0, i64 0
  call void @_ZL9copy_rvecPKfPf(ptr noundef %19, ptr noundef %22)
  ret void
}

; Function Attrs: mustprogress uwtable
define noundef zeroext i1 @_Z11read_next_xPK16gmx_output_env_tP11t_trxstatusPfPA3_fS6_(ptr noundef %0, ptr noundef %1, ptr noundef %2, ptr noundef %3, ptr noundef %4) #2 {
  %6 = alloca ptr, align 8
  %7 = alloca ptr, align 8
  %8 = alloca ptr, align 8
  %9 = alloca ptr, align 8
  %10 = alloca ptr, align 8
  %11 = alloca i8, align 1
  store ptr %0, ptr %6, align 8
  store ptr %1, ptr %7, align 8
  store ptr %2, ptr %8, align 8
  store ptr %3, ptr %9, align 8
  store ptr %4, ptr %10, align 8
  %12 = load ptr, ptr %9, align 8
  %13 = load ptr, ptr %7, align 8
  %14 = getelementptr inbounds %struct.t_trxstatus, ptr %13, i32 0, i32 4
  %15 = load ptr, ptr %14, align 8
  %16 = getelementptr inbounds %struct.t_trxframe, ptr %15, i32 0, i32 16
  store ptr %12, ptr %16, align 8
  %17 = load ptr, ptr %6, align 8
  %18 = load ptr, ptr %7, align 8
  %19 = load ptr, ptr %7, align 8
  %20 = getelementptr inbounds %struct.t_trxstatus, ptr %19, i32 0, i32 4
  %21 = load ptr, ptr %20, align 8
  %22 = call noundef zeroext i1 @_Z15read_next_framePK16gmx_output_env_tP11t_trxstatusP10t_trxframe(ptr noundef %17, ptr noundef %18, ptr noundef %21)
  %23 = zext i1 %22 to i8
  store i8 %23, ptr %11, align 1
  %24 = load ptr, ptr %7, align 8
  %25 = getelementptr inbounds %struct.t_trxstatus, ptr %24, i32 0, i32 4
  %26 = load ptr, ptr %25, align 8
  %27 = getelementptr inbounds %struct.t_trxframe, ptr %26, i32 0, i32 6
  %28 = load float, ptr %27, align 4
  %29 = load ptr, ptr %8, align 8
  store float %28, ptr %29, align 4
  %30 = load ptr, ptr %7, align 8
  %31 = getelementptr inbounds %struct.t_trxstatus, ptr %30, i32 0, i32 4
  %32 = load ptr, ptr %31, align 8
  %33 = getelementptr inbounds %struct.t_trxframe, ptr %32, i32 0, i32 22
  %34 = getelementptr inbounds [3 x [3 x float]], ptr %33, i64 0, i64 0
  %35 = load ptr, ptr %10, align 8
  call void @_ZL8copy_matPA3_KfPA3_f(ptr noundef %34, ptr noundef %35)
  %36 = load i8, ptr %11, align 1
  %37 = trunc i8 %36 to i1
  ret i1 %37
}