; Function Attrs: mustprogress uwtable
define noundef zeroext i1 @_Z11read_next_xPK16gmx_output_env_tP11t_trxstatusPfPA3_fS6_(ptr noundef %0, ptr nocapture noundef %1, ptr nocapture noundef writeonly %2, ptr noundef %3, ptr nocapture noundef writeonly %4) local_unnamed_addr #2 {
  %6 = getelementptr inbounds i8, ptr %1, i64 16
  %7 = load ptr, ptr %6, align 8
  %8 = getelementptr inbounds i8, ptr %7, i64 72
  store ptr %3, ptr %8, align 8
  %9 = load ptr, ptr %6, align 8
  %10 = tail call noundef zeroext i1 @_Z15read_next_framePK16gmx_output_env_tP11t_trxstatusP10t_trxframe(ptr noundef %0, ptr noundef %1, ptr noundef %9)
  %11 = load ptr, ptr %6, align 8
  %12 = getelementptr inbounds i8, ptr %11, i64 28
  %13 = load float, ptr %12, align 4
  store float %13, ptr %2, align 4
  %14 = load ptr, ptr %6, align 8
  %15 = getelementptr inbounds i8, ptr %14, i64 116
  %16 = load float, ptr %15, align 4
  store float %16, ptr %4, align 4
  %17 = getelementptr inbounds i8, ptr %14, i64 120
  %18 = load float, ptr %17, align 4
  %19 = getelementptr inbounds i8, ptr %4, i64 4
  store float %18, ptr %19, align 4
  %20 = getelementptr inbounds i8, ptr %14, i64 124
  %21 = load float, ptr %20, align 4
  %22 = getelementptr inbounds i8, ptr %4, i64 8
  store float %21, ptr %22, align 4
  %23 = getelementptr inbounds i8, ptr %14, i64 128
  %24 = getelementptr inbounds i8, ptr %4, i64 12
  %25 = load float, ptr %23, align 4
  store float %25, ptr %24, align 4
  %26 = getelementptr inbounds i8, ptr %14, i64 132
  %27 = load float, ptr %26, align 4
  %28 = getelementptr inbounds i8, ptr %4, i64 16
  store float %27, ptr %28, align 4
  %29 = getelementptr inbounds i8, ptr %14, i64 136
  %30 = load float, ptr %29, align 4
  %31 = getelementptr inbounds i8, ptr %4, i64 20
  store float %30, ptr %31, align 4
  %32 = getelementptr inbounds i8, ptr %14, i64 140
  %33 = getelementptr inbounds i8, ptr %4, i64 24
  %34 = load float, ptr %32, align 4
  store float %34, ptr %33, align 4
  %35 = getelementptr inbounds i8, ptr %14, i64 144
  %36 = load float, ptr %35, align 4
  %37 = getelementptr inbounds i8, ptr %4, i64 28
  store float %36, ptr %37, align 4
  %38 = getelementptr inbounds i8, ptr %14, i64 148
  %39 = load float, ptr %38, align 4
  %40 = getelementptr inbounds i8, ptr %4, i64 32
  store float %39, ptr %40, align 4
  ret i1 %10
}